target datalayout = "e-m:e-p270:32:32-p271:32:32-p272:64:64-i64:64-i128:128-f80:128-n8:16:32:64-S128"
target triple = "x86_64-pc-linux-gnu"

%struct.expert_field = type { i32, i32 }
%struct._packet_info = type { ptr, ptr, i32, i32, %struct.nstime_t, %struct.nstime_t, %struct.nstime_t, i8, ptr, ptr, ptr, ptr, %struct._address, %struct._address, %struct._address, %struct._address, %struct._address, %struct._address, i32, ptr, i8, [3 x i8], %struct.anon, i32, i32, i32, i32, ptr, i8, ptr, ptr, i16, i16, i32, i32, i16, i32, i32, ptr, ptr, ptr, i8, i8, i16, i16, i16, i32, i16, i16, ptr, ptr, ptr, ptr, ptr, i32, i32 }
%struct.nstime_t = type { i64, i32 }
%struct._address = type { i32, i32, ptr, ptr }
%struct.anon = type { i8, [3 x i8] }

@ei_bssgp_missing_mandatory_element = internal global %struct.expert_field zeroinitializer, align 4
@.str.6 = private unnamed_addr constant [71 x i8] c"Missing Mandatory element (0x%02x) %s%s, rest of dissection is suspect\00", align 1
@.str.7 = private unnamed_addr constant [1 x i8] zeroinitializer, align 1
@ei_bssgp_extraneous_data = internal global %struct.expert_field zeroinitializer, align 4
@.str.753 = private unnamed_addr constant [10 x i8] c" - Source\00", align 1
@.str.754 = private unnamed_addr constant [10 x i8] c" - Target\00", align 1

; Function Attrs: null_pointer_is_valid sspstrong uwtable
define internal void @bssgp_ps_ho_required(ptr noundef %0, ptr noundef %1, ptr noundef %2, i32 noundef %3, i32 noundef %4) #1 {
  %6 = alloca ptr, align 8
  %7 = alloca ptr, align 8
  %8 = alloca ptr, align 8
  %9 = alloca i32, align 4
  %10 = alloca i32, align 4
  %11 = alloca i32, align 4
  %12 = alloca i32, align 4
  %13 = alloca i32, align 4
  %14 = alloca i32, align 4
  store ptr %0, ptr %6, align 8
  store ptr %1, ptr %7, align 8
  store ptr %2, ptr %8, align 8
  store i32 %3, ptr %9, align 4
  store i32 %4, ptr %10, align 4
  call void @llvm.lifetime.start.p0(i64 4, ptr %11) #4
  call void @llvm.lifetime.start.p0(i64 4, ptr %12) #4
  call void @llvm.lifetime.start.p0(i64 4, ptr %13) #4
  %15 = load i32, ptr %9, align 4
  store i32 %15, ptr %11, align 4
  %16 = load i32, ptr %10, align 4
  store i32 %16, ptr %13, align 4
  %17 = load ptr, ptr %8, align 8
  %18 = getelementptr inbounds nuw %struct._packet_info, ptr %17, i32 0, i32 46
  store i32 0, ptr %18, align 8
  %19 = load i32, ptr %13, align 4
  %20 = icmp sgt i32 %19, 0
  br i1 %20, label %21, label %37

21:                                               ; preds = %5
  %22 = load ptr, ptr %6, align 8
  %23 = load ptr, ptr %7, align 8
  %24 = load ptr, ptr %8, align 8
  %25 = load i32, ptr %11, align 4
  %26 = load i32, ptr %13, align 4
  %27 = call zeroext i16 @elem_telv(ptr noundef %22, ptr noundef %23, ptr noundef %24, i8 noundef zeroext 31, i32 noundef 3, i32 noundef 68, i32 noundef %25, i32 noundef %26, ptr noundef null)
  %28 = zext i16 %27 to i32
  store i32 %28, ptr %12, align 4
  %29 = icmp ugt i32 %28, 0
  br i1 %29, label %30, label %37

30:                                               ; preds = %21
  %31 = load i32, ptr %12, align 4
  %32 = load i32, ptr %11, align 4
  %33 = add i32 %32, %31
  store i32 %33, ptr %11, align 4
  %34 = load i32, ptr %12, align 4
  %35 = load i32, ptr %13, align 4
  %36 = sub i32 %35, %34
  store i32 %36, ptr %13, align 4
  br label %44

37:                                               ; preds = %21, %5
  %38 = load ptr, ptr %7, align 8
  %39 = load ptr, ptr %8, align 8
  %40 = load ptr, ptr %6, align 8
  %41 = load i32, ptr %11, align 4
  %42 = call ptr @get_gsm_a_msg_string(i32 noundef 3, i32 noundef 68)
  %43 = call ptr (ptr, ptr, ptr, ptr, i32, i32, ptr, ...) @proto_tree_add_expert_format(ptr noundef %38, ptr noundef %39, ptr noundef @ei_bssgp_missing_mandatory_element, ptr noundef %40, i32 noundef %41, i32 noundef 0, ptr noundef @.str.6, i32 noundef 31, ptr noundef %42, ptr noundef @.str.7)
  br label %44

44:                                               ; preds = %37, %30
  %45 = load i32, ptr %13, align 4
  %46 = icmp sgt i32 %45, 0
  br i1 %46, label %47, label %63

47:                                               ; preds = %44
  %48 = load ptr, ptr %6, align 8
  %49 = load ptr, ptr %7, align 8
  %50 = load ptr, ptr %8, align 8
  %51 = load i32, ptr %11, align 4
  %52 = load i32, ptr %13, align 4
  %53 = call zeroext i16 @elem_telv(ptr noundef %48, ptr noundef %49, ptr noundef %50, i8 noundef zeroext 7, i32 noundef 13, i32 noundef 7, i32 noundef %51, i32 noundef %52, ptr noundef null)
  %54 = zext i16 %53 to i32
  store i32 %54, ptr %12, align 4
  %55 = icmp ugt i32 %54, 0
  br i1 %55, label %56, label %63

56:                                               ; preds = %47
  %57 = load i32, ptr %12, align 4
  %58 = load i32, ptr %11, align 4
  %59 = add i32 %58, %57
  store i32 %59, ptr %11, align 4
  %60 = load i32, ptr %12, align 4
  %61 = load i32, ptr %13, align 4
  %62 = sub i32 %61, %60
  store i32 %62, ptr %13, align 4
  br label %70

63:                                               ; preds = %47, %44
  %64 = load ptr, ptr %7, align 8
  %65 = load ptr, ptr %8, align 8
  %66 = load ptr, ptr %6, align 8
  %67 = load i32, ptr %11, align 4
  %68 = call ptr @get_gsm_a_msg_string(i32 noundef 13, i32 noundef 7)
  %69 = call ptr (ptr, ptr, ptr, ptr, i32, i32, ptr, ...) @proto_tree_add_expert_format(ptr noundef %64, ptr noundef %65, ptr noundef @ei_bssgp_missing_mandatory_element, ptr noundef %66, i32 noundef %67, i32 noundef 0, ptr noundef @.str.6, i32 noundef 7, ptr noundef %68, ptr noundef @.str.7)
  br label %70

70:                                               ; preds = %63, %56
  %71 = load i32, ptr %13, align 4
  %72 = icmp sgt i32 %71, 0
  br i1 %72, label %73, label %89

73:                                               ; preds = %70
  %74 = load ptr, ptr %6, align 8
  %75 = load ptr, ptr %7, align 8
  %76 = load ptr, ptr %8, align 8
  %77 = load i32, ptr %11, align 4
  %78 = load i32, ptr %13, align 4
  %79 = call zeroext i16 @elem_telv(ptr noundef %74, ptr noundef %75, ptr noundef %76, i8 noundef zeroext 8, i32 noundef 13, i32 noundef 8, i32 noundef %77, i32 noundef %78, ptr noundef @.str.753)
  %80 = zext i16 %79 to i32
  store i32 %80, ptr %12, align 4
  %81 = icmp ugt i32 %80, 0
  br i1 %81, label %82, label %89

82:                                               ; preds = %73
  %83 = load i32, ptr %12, align 4
  %84 = load i32, ptr %11, align 4
  %85 = add i32 %84, %83
  store i32 %85, ptr %11, align 4
  %86 = load i32, ptr %12, align 4
  %87 = load i32, ptr %13, align 4
  %88 = sub i32 %87, %86
  store i32 %88, ptr %13, align 4
  br label %96

89:                                               ; preds = %73, %70
  %90 = load ptr, ptr %7, align 8
  %91 = load ptr, ptr %8, align 8
  %92 = load ptr, ptr %6, align 8
  %93 = load i32, ptr %11, align 4
  %94 = call ptr @get_gsm_a_msg_string(i32 noundef 13, i32 noundef 8)
  %95 = call ptr (ptr, ptr, ptr, ptr, i32, i32, ptr, ...) @proto_tree_add_expert_format(ptr noundef %90, ptr noundef %91, ptr noundef @ei_bssgp_missing_mandatory_element, ptr noundef %92, i32 noundef %93, i32 noundef 0, ptr noundef @.str.6, i32 noundef 8, ptr noundef %94, ptr noundef @.str.753)
  br label %96

96:                                               ; preds = %89, %82
  %97 = load i32, ptr %13, align 4
  %98 = icmp sle i32 %97, 0
  br i1 %98, label %99, label %100

99:                                               ; preds = %96
  store i32 1, ptr %14, align 4
  br label %292

100:                                              ; preds = %96
  %101 = load ptr, ptr %6, align 8
  %102 = load ptr, ptr %7, align 8
  %103 = load ptr, ptr %8, align 8
  %104 = load i32, ptr %11, align 4
  %105 = load i32, ptr %13, align 4
  %106 = call zeroext i16 @elem_telv(ptr noundef %101, ptr noundef %102, ptr noundef %103, i8 noundef zeroext 8, i32 noundef 13, i32 noundef 8, i32 noundef %104, i32 noundef %105, ptr noundef @.str.754)
  %107 = zext i16 %106 to i32
  store i32 %107, ptr %12, align 4
  %108 = icmp ugt i32 %107, 0
  br i1 %108, label %109, label %116

109:                                              ; preds = %100
  %110 = load i32, ptr %12, align 4
  %111 = load i32, ptr %11, align 4
  %112 = add i32 %111, %110
  store i32 %112, ptr %11, align 4
  %113 = load i32, ptr %12, align 4
  %114 = load i32, ptr %13, align 4
  %115 = sub i32 %114, %113
  store i32 %115, ptr %13, align 4
  br label %116

116:                                              ; preds = %109, %100
  %117 = load i32, ptr %13, align 4
  %118 = icmp sle i32 %117, 0
  br i1 %118, label %119, label %120

119:                                              ; preds = %116
  store i32 1, ptr %14, align 4
  br label %292

120:                                              ; preds = %116
  %121 = load ptr, ptr %6, align 8
  %122 = load ptr, ptr %7, align 8
  %123 = load ptr, ptr %8, align 8
  %124 = load i32, ptr %11, align 4
  %125 = load i32, ptr %13, align 4
  %126 = call zeroext i16 @elem_telv(ptr noundef %121, ptr noundef %122, ptr noundef %123, i8 noundef zeroext 100, i32 noundef 13, i32 noundef 71, i32 noundef %124, i32 noundef %125, ptr noundef null)
  %127 = zext i16 %126 to i32
  store i32 %127, ptr %12, align 4
  %128 = icmp ugt i32 %127, 0
  br i1 %128, label %129, label %136

129:                                              ; preds = %120
  %130 = load i32, ptr %12, align 4
  %131 = load i32, ptr %11, align 4
  %132 = add i32 %131, %130
  store i32 %132, ptr %11, align 4
  %133 = load i32, ptr %12, align 4
  %134 = load i32, ptr %13, align 4
  %135 = sub i32 %134, %133
  store i32 %135, ptr %13, align 4
  br label %136

136:                                              ; preds = %129, %120
  %137 = load i32, ptr %13, align 4
  %138 = icmp sle i32 %137, 0
  br i1 %138, label %139, label %140

139:                                              ; preds = %136
  store i32 1, ptr %14, align 4
  br label %292

140:                                              ; preds = %136
  %141 = load ptr, ptr %6, align 8
  %142 = load ptr, ptr %7, align 8
  %143 = load ptr, ptr %8, align 8
  %144 = load i32, ptr %11, align 4
  %145 = load i32, ptr %13, align 4
  %146 = call zeroext i16 @elem_telv(ptr noundef %141, ptr noundef %142, ptr noundef %143, i8 noundef zeroext 108, i32 noundef 13, i32 noundef 78, i32 noundef %144, i32 noundef %145, ptr noundef @.str.754)
  %147 = zext i16 %146 to i32
  store i32 %147, ptr %12, align 4
  %148 = icmp ugt i32 %147, 0
  br i1 %148, label %149, label %156

149:                                              ; preds = %140
  %150 = load i32, ptr %12, align 4
  %151 = load i32, ptr %11, align 4
  %152 = add i32 %151, %150
  store i32 %152, ptr %11, align 4
  %153 = load i32, ptr %12, align 4
  %154 = load i32, ptr %13, align 4
  %155 = sub i32 %154, %153
  store i32 %155, ptr %13, align 4
  br label %156

156:                                              ; preds = %149, %140
  %157 = load i32, ptr %13, align 4
  %158 = icmp sle i32 %157, 0
  br i1 %158, label %159, label %160

159:                                              ; preds = %156
  store i32 1, ptr %14, align 4
  br label %292

160:                                              ; preds = %156
  %161 = load ptr, ptr %6, align 8
  %162 = load ptr, ptr %7, align 8
  %163 = load ptr, ptr %8, align 8
  %164 = load i32, ptr %11, align 4
  %165 = load i32, ptr %13, align 4
  %166 = call zeroext i16 @elem_telv(ptr noundef %161, ptr noundef %162, ptr noundef %163, i8 noundef zeroext 106, i32 noundef 13, i32 noundef 76, i32 noundef %164, i32 noundef %165, ptr noundef null)
  %167 = zext i16 %166 to i32
  store i32 %167, ptr %12, align 4
  %168 = icmp ugt i32 %167, 0
  br i1 %168, label %169, label %176

169:                                              ; preds = %160
  %170 = load i32, ptr %12, align 4
  %171 = load i32, ptr %11, align 4
  %172 = add i32 %171, %170
  store i32 %172, ptr %11, align 4
  %173 = load i32, ptr %12, align 4
  %174 = load i32, ptr %13, align 4
  %175 = sub i32 %174, %173
  store i32 %175, ptr %13, align 4
  br label %176

176:                                              ; preds = %169, %160
  %177 = load i32, ptr %13, align 4
  %178 = icmp sle i32 %177, 0
  br i1 %178, label %179, label %180

179:                                              ; preds = %176
  store i32 1, ptr %14, align 4
  br label %292

180:                                              ; preds = %176
  %181 = load ptr, ptr %6, align 8
  %182 = load ptr, ptr %7, align 8
  %183 = load ptr, ptr %8, align 8
  %184 = load i32, ptr %11, align 4
  %185 = load i32, ptr %13, align 4
  %186 = call zeroext i16 @elem_telv(ptr noundef %181, ptr noundef %182, ptr noundef %183, i8 noundef zeroext 119, i32 noundef 13, i32 noundef 88, i32 noundef %184, i32 noundef %185, ptr noundef null)
  %187 = zext i16 %186 to i32
  store i32 %187, ptr %12, align 4
  %188 = icmp ugt i32 %187, 0
  br i1 %188, label %189, label %196

189:                                              ; preds = %180
  %190 = load i32, ptr %12, align 4
  %191 = load i32, ptr %11, align 4
  %192 = add i32 %191, %190
  store i32 %192, ptr %11, align 4
  %193 = load i32, ptr %12, align 4
  %194 = load i32, ptr %13, align 4
  %195 = sub i32 %194, %193
  store i32 %195, ptr %13, align 4
  br label %196

196:                                              ; preds = %189, %180
  %197 = load i32, ptr %13, align 4
  %198 = icmp sle i32 %197, 0
  br i1 %198, label %199, label %200

199:                                              ; preds = %196
  store i32 1, ptr %14, align 4
  br label %292

200:                                              ; preds = %196
  %201 = load ptr, ptr %6, align 8
  %202 = load ptr, ptr %7, align 8
  %203 = load ptr, ptr %8, align 8
  %204 = load i32, ptr %11, align 4
  %205 = load i32, ptr %13, align 4
  %206 = call zeroext i16 @elem_telv(ptr noundef %201, ptr noundef %202, ptr noundef %203, i8 noundef zeroext 127, i32 noundef 13, i32 noundef 93, i32 noundef %204, i32 noundef %205, ptr noundef @.str.754)
  %207 = zext i16 %206 to i32
  store i32 %207, ptr %12, align 4
  %208 = icmp ugt i32 %207, 0
  br i1 %208, label %209, label %216

209:                                              ; preds = %200
  %210 = load i32, ptr %12, align 4
  %211 = load i32, ptr %11, align 4
  %212 = add i32 %211, %210
  store i32 %212, ptr %11, align 4
  %213 = load i32, ptr %12, align 4
  %214 = load i32, ptr %13, align 4
  %215 = sub i32 %214, %213
  store i32 %215, ptr %13, align 4
  br label %216

216:                                              ; preds = %209, %200
  %217 = load i32, ptr %13, align 4
  %218 = icmp sle i32 %217, 0
  br i1 %218, label %219, label %220

219:                                              ; preds = %216
  store i32 1, ptr %14, align 4
  br label %292

220:                                              ; preds = %216
  %221 = load ptr, ptr %6, align 8
  %222 = load ptr, ptr %7, align 8
  %223 = load ptr, ptr %8, align 8
  %224 = load i32, ptr %11, align 4
  %225 = load i32, ptr %13, align 4
  %226 = call zeroext i16 @elem_telv(ptr noundef %221, ptr noundef %222, ptr noundef %223, i8 noundef zeroext -125, i32 noundef 13, i32 noundef 97, i32 noundef %224, i32 noundef %225, ptr noundef null)
  %227 = zext i16 %226 to i32
  store i32 %227, ptr %12, align 4
  %228 = icmp ugt i32 %227, 0
  br i1 %228, label %229, label %236

229:                                              ; preds = %220
  %230 = load i32, ptr %12, align 4
  %231 = load i32, ptr %11, align 4
  %232 = add i32 %231, %230
  store i32 %232, ptr %11, align 4
  %233 = load i32, ptr %12, align 4
  %234 = load i32, ptr %13, align 4
  %235 = sub i32 %234, %233
  store i32 %235, ptr %13, align 4
  br label %236

236:                                              ; preds = %229, %220
  %237 = load i32, ptr %13, align 4
  %238 = icmp sle i32 %237, 0
  br i1 %238, label %239, label %240

239:                                              ; preds = %236
  store i32 1, ptr %14, align 4
  br label %292

240:                                              ; preds = %236
  %241 = load ptr, ptr %6, align 8
  %242 = load ptr, ptr %7, align 8
  %243 = load ptr, ptr %8, align 8
  %244 = load i32, ptr %11, align 4
  %245 = load i32, ptr %13, align 4
  %246 = call zeroext i16 @elem_telv(ptr noundef %241, ptr noundef %242, ptr noundef %243, i8 noundef zeroext -123, i32 noundef 13, i32 noundef 99, i32 noundef %244, i32 noundef %245, ptr noundef null)
  %247 = zext i16 %246 to i32
  store i32 %247, ptr %12, align 4
  %248 = icmp ugt i32 %247, 0
  br i1 %248, label %249, label %256

249:                                              ; preds = %240
  %250 = load i32, ptr %12, align 4
  %251 = load i32, ptr %11, align 4
  %252 = add i32 %251, %250
  store i32 %252, ptr %11, align 4
  %253 = load i32, ptr %12, align 4
  %254 = load i32, ptr %13, align 4
  %255 = sub i32 %254, %253
  store i32 %255, ptr %13, align 4
  br label %256

256:                                              ; preds = %249, %240
  %257 = load i32, ptr %13, align 4
  %258 = icmp sle i32 %257, 0
  br i1 %258, label %259, label %260

259:                                              ; preds = %256
  store i32 1, ptr %14, align 4
  br label %292

260:                                              ; preds = %256
  %261 = load ptr, ptr %6, align 8
  %262 = load ptr, ptr %7, align 8
  %263 = load ptr, ptr %8, align 8
  %264 = load i32, ptr %11, align 4
  %265 = load i32, ptr %13, align 4
  %266 = call zeroext i16 @elem_telv(ptr noundef %261, ptr noundef %262, ptr noundef %263, i8 noundef zeroext -122, i32 noundef 10, i32 noundef 40, i32 noundef %264, i32 noundef %265, ptr noundef null)
  %267 = zext i16 %266 to i32
  store i32 %267, ptr %12, align 4
  %268 = icmp ugt i32 %267, 0
  br i1 %268, label %269, label %276

269:                                              ; preds = %260
  %270 = load i32, ptr %12, align 4
  %271 = load i32, ptr %11, align 4
  %272 = add i32 %271, %270
  store i32 %272, ptr %11, align 4
  %273 = load i32, ptr %12, align 4
  %274 = load i32, ptr %13, align 4
  %275 = sub i32 %274, %273
  store i32 %275, ptr %13, align 4
  br label %276

276:                                              ; preds = %269, %260
  %277 = load i32, ptr %13, align 4
  %278 = icmp ugt i32 %277, 0
  br i1 %278, label %279, label %291

279:                                              ; preds = %276
  %280 = load ptr, ptr %7, align 8
  %281 = load ptr, ptr %8, align 8
  %282 = load ptr, ptr %6, align 8
  %283 = load i32, ptr %11, align 4
  %284 = load i32, ptr %13, align 4
  %285 = sub i32 %284, 0
  %286 = call ptr @proto_tree_add_expert(ptr noundef %280, ptr noundef %281, ptr noundef @ei_bssgp_extraneous_data, ptr noundef %282, i32 noundef %283, i32 noundef %285)
  %287 = load i32, ptr %13, align 4
  %288 = sub i32 %287, 0
  %289 = load i32, ptr %11, align 4
  %290 = add i32 %289, %288
  store i32 %290, ptr %11, align 4
  br label %291

291:                                              ; preds = %279, %276
  store i32 0, ptr %14, align 4
  br label %292

292:                                              ; preds = %291, %259, %239, %219, %199, %179, %159, %139, %119, %99
  call void @llvm.lifetime.end.p0(i64 4, ptr %13) #4
  call void @llvm.lifetime.end.p0(i64 4, ptr %12) #4
  call void @llvm.lifetime.end.p0(i64 4, ptr %11) #4
  %293 = load i32, ptr %14, align 4
  switch i32 %293, label %295 [
    i32 0, label %294
    i32 1, label %294
  ]

294:                                              ; preds = %292, %292
  ret void

295:                                              ; preds = %292
  unreachable
}