; Function Attrs: null_pointer_is_valid sspstrong uwtable
define internal void @bssgp_ps_ho_required(ptr noundef %0, ptr noundef %1, ptr noundef initializes((384, 388)) %2, i32 noundef %3, i32 noundef %4) #1 {
  %6 = getelementptr inbounds nuw i8, ptr %2, i64 384
  store i32 0, ptr %6, align 8
  %7 = icmp sgt i32 %4, 0
  br i1 %7, label %8, label %14

8:                                                ; preds = %5
  %9 = tail call zeroext i16 @elem_telv(ptr noundef %0, ptr noundef %1, ptr noundef %2, i8 noundef zeroext 31, i32 noundef 3, i32 noundef 68, i32 noundef %3, i32 noundef %4, ptr noundef null)
  %.not = icmp eq i16 %9, 0
  br i1 %.not, label %14, label %10

10:                                               ; preds = %8
  %11 = zext i16 %9 to i32
  %12 = add i32 %3, %11
  %13 = sub nsw i32 %4, %11
  br label %17

14:                                               ; preds = %8, %5
  %15 = tail call ptr @get_gsm_a_msg_string(i32 noundef 3, i32 noundef 68)
  %16 = tail call ptr (ptr, ptr, ptr, ptr, i32, i32, ptr, ...) @proto_tree_add_expert_format(ptr noundef %1, ptr noundef %2, ptr noundef nonnull @ei_bssgp_missing_mandatory_element, ptr noundef %0, i32 noundef %3, i32 noundef 0, ptr noundef nonnull @.str.6, i32 noundef 31, ptr noundef %15, ptr noundef nonnull @.str.7)
  br label %17

17:                                               ; preds = %14, %10
  %.0142 = phi i32 [ %12, %10 ], [ %3, %14 ]
  %.0 = phi i32 [ %13, %10 ], [ %4, %14 ]
  %18 = icmp sgt i32 %.0, 0
  br i1 %18, label %19, label %25

19:                                               ; preds = %17
  %20 = tail call zeroext i16 @elem_telv(ptr noundef %0, ptr noundef %1, ptr noundef %2, i8 noundef zeroext 7, i32 noundef 13, i32 noundef 7, i32 noundef %.0142, i32 noundef %.0, ptr noundef null)
  %.not167 = icmp eq i16 %20, 0
  br i1 %.not167, label %25, label %21

21:                                               ; preds = %19
  %22 = zext i16 %20 to i32
  %23 = add i32 %.0142, %22
  %24 = sub nsw i32 %.0, %22
  br label %28

25:                                               ; preds = %19, %17
  %26 = tail call ptr @get_gsm_a_msg_string(i32 noundef 13, i32 noundef 7)
  %27 = tail call ptr (ptr, ptr, ptr, ptr, i32, i32, ptr, ...) @proto_tree_add_expert_format(ptr noundef %1, ptr noundef %2, ptr noundef nonnull @ei_bssgp_missing_mandatory_element, ptr noundef %0, i32 noundef %.0142, i32 noundef 0, ptr noundef nonnull @.str.6, i32 noundef 7, ptr noundef %26, ptr noundef nonnull @.str.7)
  br label %28

28:                                               ; preds = %25, %21
  %.1143 = phi i32 [ %23, %21 ], [ %.0142, %25 ]
  %.1 = phi i32 [ %24, %21 ], [ %.0, %25 ]
  %29 = icmp sgt i32 %.1, 0
  br i1 %29, label %30, label %36

30:                                               ; preds = %28
  %31 = tail call zeroext i16 @elem_telv(ptr noundef %0, ptr noundef %1, ptr noundef %2, i8 noundef zeroext 8, i32 noundef 13, i32 noundef 8, i32 noundef %.1143, i32 noundef %.1, ptr noundef nonnull @.str.753)
  %.not168 = icmp eq i16 %31, 0
  br i1 %.not168, label %36, label %32

32:                                               ; preds = %30
  %33 = zext i16 %31 to i32
  %34 = add i32 %.1143, %33
  %35 = sub nsw i32 %.1, %33
  br label %39

36:                                               ; preds = %30, %28
  %37 = tail call ptr @get_gsm_a_msg_string(i32 noundef 13, i32 noundef 8)
  %38 = tail call ptr (ptr, ptr, ptr, ptr, i32, i32, ptr, ...) @proto_tree_add_expert_format(ptr noundef %1, ptr noundef %2, ptr noundef nonnull @ei_bssgp_missing_mandatory_element, ptr noundef %0, i32 noundef %.1143, i32 noundef 0, ptr noundef nonnull @.str.6, i32 noundef 8, ptr noundef %37, ptr noundef nonnull @.str.753)
  br label %39

39:                                               ; preds = %36, %32
  %.2144 = phi i32 [ %34, %32 ], [ %.1143, %36 ]
  %.2 = phi i32 [ %35, %32 ], [ %.1, %36 ]
  %40 = icmp slt i32 %.2, 1
  br i1 %40, label %96, label %41

41:                                               ; preds = %39
  %42 = tail call zeroext i16 @elem_telv(ptr noundef %0, ptr noundef %1, ptr noundef %2, i8 noundef zeroext 8, i32 noundef 13, i32 noundef 8, i32 noundef %.2144, i32 noundef %.2, ptr noundef nonnull @.str.754)
  %43 = zext i16 %42 to i32
  %44 = sub nsw i32 %.2, %43
  %45 = icmp slt i32 %44, 1
  br i1 %45, label %96, label %46

46:                                               ; preds = %41
  %47 = add i32 %.2144, %43
  %48 = tail call zeroext i16 @elem_telv(ptr noundef %0, ptr noundef %1, ptr noundef %2, i8 noundef zeroext 100, i32 noundef 13, i32 noundef 71, i32 noundef %47, i32 noundef %44, ptr noundef null)
  %49 = zext i16 %48 to i32
  %50 = sub nsw i32 %44, %49
  %51 = icmp slt i32 %50, 1
  br i1 %51, label %96, label %52

52:                                               ; preds = %46
  %53 = add i32 %47, %49
  %54 = tail call zeroext i16 @elem_telv(ptr noundef %0, ptr noundef %1, ptr noundef %2, i8 noundef zeroext 108, i32 noundef 13, i32 noundef 78, i32 noundef %53, i32 noundef %50, ptr noundef nonnull @.str.754)
  %55 = zext i16 %54 to i32
  %56 = sub nsw i32 %50, %55
  %57 = icmp slt i32 %56, 1
  br i1 %57, label %96, label %58

58:                                               ; preds = %52
  %59 = add i32 %53, %55
  %60 = tail call zeroext i16 @elem_telv(ptr noundef %0, ptr noundef %1, ptr noundef %2, i8 noundef zeroext 106, i32 noundef 13, i32 noundef 76, i32 noundef %59, i32 noundef %56, ptr noundef null)
  %61 = zext i16 %60 to i32
  %62 = sub nsw i32 %56, %61
  %63 = icmp slt i32 %62, 1
  br i1 %63, label %96, label %64

64:                                               ; preds = %58
  %65 = add i32 %59, %61
  %66 = tail call zeroext i16 @elem_telv(ptr noundef %0, ptr noundef %1, ptr noundef %2, i8 noundef zeroext 119, i32 noundef 13, i32 noundef 88, i32 noundef %65, i32 noundef %62, ptr noundef null)
  %67 = zext i16 %66 to i32
  %68 = sub nsw i32 %62, %67
  %69 = icmp slt i32 %68, 1
  br i1 %69, label %96, label %70

70:                                               ; preds = %64
  %71 = add i32 %65, %67
  %72 = tail call zeroext i16 @elem_telv(ptr noundef %0, ptr noundef %1, ptr noundef %2, i8 noundef zeroext 127, i32 noundef 13, i32 noundef 93, i32 noundef %71, i32 noundef %68, ptr noundef nonnull @.str.754)
  %73 = zext i16 %72 to i32
  %74 = sub nsw i32 %68, %73
  %75 = icmp slt i32 %74, 1
  br i1 %75, label %96, label %76

76:                                               ; preds = %70
  %77 = add i32 %71, %73
  %78 = tail call zeroext i16 @elem_telv(ptr noundef %0, ptr noundef %1, ptr noundef %2, i8 noundef zeroext -125, i32 noundef 13, i32 noundef 97, i32 noundef %77, i32 noundef %74, ptr noundef null)
  %79 = zext i16 %78 to i32
  %80 = sub nsw i32 %74, %79
  %81 = icmp slt i32 %80, 1
  br i1 %81, label %96, label %82

82:                                               ; preds = %76
  %83 = add i32 %77, %79
  %84 = tail call zeroext i16 @elem_telv(ptr noundef %0, ptr noundef %1, ptr noundef %2, i8 noundef zeroext -123, i32 noundef 13, i32 noundef 99, i32 noundef %83, i32 noundef %80, ptr noundef null)
  %85 = zext i16 %84 to i32
  %86 = sub nsw i32 %80, %85
  %87 = icmp slt i32 %86, 1
  br i1 %87, label %96, label %88

88:                                               ; preds = %82
  %89 = add i32 %83, %85
  %90 = tail call zeroext i16 @elem_telv(ptr noundef %0, ptr noundef %1, ptr noundef %2, i8 noundef zeroext -122, i32 noundef 10, i32 noundef 40, i32 noundef %89, i32 noundef %86, ptr noundef null)
  %91 = zext i16 %90 to i32
  %.not178 = icmp eq i32 %86, %91
  br i1 %.not178, label %96, label %92

92:                                               ; preds = %88
  %93 = sub nsw i32 %86, %91
  %94 = add i32 %89, %91
  %95 = tail call ptr @proto_tree_add_expert(ptr noundef %1, ptr noundef %2, ptr noundef nonnull @ei_bssgp_extraneous_data, ptr noundef %0, i32 noundef %94, i32 noundef %93)
  br label %96

96:                                               ; preds = %88, %92, %82, %76, %70, %64, %58, %52, %46, %41, %39
  ret void
}